; Function Attrs: nounwind uwtable
define internal range(i32 0, 2) i32 @p_isasclet(ptr noundef readonly captures(none) %0) #0 {
  %2 = getelementptr inbounds nuw i8, ptr %0, i64 40
  %3 = load ptr, ptr %2, align 8
  %4 = getelementptr inbounds nuw i8, ptr %3, i64 8
  %5 = load i32, ptr %4, align 8
  %6 = icmp eq i32 %5, 1
  br i1 %6, label %p_isascii.exit, label %p_isascii.exit.thread

p_isascii.exit:                                   ; preds = %1
  %7 = load ptr, ptr %0, align 8
  %8 = load i32, ptr %3, align 8
  %9 = sext i32 %8 to i64
  %10 = getelementptr inbounds i8, ptr %7, i64 %9
  %11 = load i8, ptr %10, align 1
  %12 = icmp slt i8 %11, 0
  br i1 %12, label %p_isascii.exit.thread, label %13

13:                                               ; preds = %p_isascii.exit
  %14 = getelementptr inbounds nuw i8, ptr %0, i64 32
  %15 = load i8, ptr %14, align 8, !range !4, !noundef !5
  %16 = trunc nuw i8 %15 to i1
  br i1 %16, label %17, label %44

17:                                               ; preds = %13
  %18 = getelementptr inbounds nuw i8, ptr %0, i64 24
  %19 = load ptr, ptr %18, align 8
  %.not.i = icmp eq ptr %19, null
  br i1 %.not.i, label %35, label %20

20:                                               ; preds = %17
  %21 = getelementptr inbounds nuw i8, ptr %3, i64 4
  %22 = load i32, ptr %21, align 4
  %23 = sext i32 %22 to i64
  %24 = getelementptr inbounds i32, ptr %19, i64 %23
  %25 = load i32, ptr %24, align 4
  %26 = icmp ugt i32 %25, 127
  br i1 %26, label %p_isalpha.exit, label %27

27:                                               ; preds = %20
  %28 = tail call ptr @__ctype_b_loc() #17
  %29 = load ptr, ptr %28, align 8
  %30 = zext nneg i32 %25 to i64
  %31 = getelementptr inbounds nuw i16, ptr %29, i64 %30
  %32 = load i16, ptr %31, align 2
  %33 = and i16 %32, 1024
  %34 = zext nneg i16 %33 to i32
  br label %p_isalpha.exit

35:                                               ; preds = %17
  %36 = getelementptr inbounds nuw i8, ptr %0, i64 16
  %37 = load ptr, ptr %36, align 8
  %38 = getelementptr inbounds nuw i8, ptr %3, i64 4
  %39 = load i32, ptr %38, align 4
  %40 = sext i32 %39 to i64
  %41 = getelementptr inbounds i32, ptr %37, i64 %40
  %42 = load i32, ptr %41, align 4
  %43 = tail call i32 @iswalpha(i32 noundef %42) #16
  br label %p_isalpha.exit

44:                                               ; preds = %13
  %45 = tail call ptr @__ctype_b_loc() #17
  %46 = load ptr, ptr %45, align 8
  %47 = zext nneg i8 %11 to i64
  %48 = getelementptr inbounds nuw i16, ptr %46, i64 %47
  %49 = load i16, ptr %48, align 2
  %50 = and i16 %49, 1024
  %51 = zext nneg i16 %50 to i32
  br label %p_isalpha.exit

p_isalpha.exit:                                   ; preds = %20, %27, %35, %44
  %.1.i = phi i32 [ %43, %35 ], [ %51, %44 ], [ %34, %27 ], [ 1, %20 ]
  %52 = icmp ne i32 %.1.i, 0
  %53 = zext i1 %52 to i32
  br label %p_isascii.exit.thread

p_isascii.exit.thread:                            ; preds = %1, %p_isalpha.exit, %p_isascii.exit
  %54 = phi i32 [ 0, %p_isascii.exit ], [ %53, %p_isalpha.exit ], [ 0, %1 ]
  ret i32 %54
}